target datalayout = "e-m:e-p270:32:32-p271:32:32-p272:64:64-i64:64-i128:128-f80:128-n8:16:32:64-S128"
target triple = "x86_64-pc-linux-gnu"

%class.btVector3 = type { [4 x float] }
%class.btConeTwistConstraint = type { %class.btTypedConstraint, [3 x %class.btJacobianEntry], %class.btTransform, %class.btTransform, float, float, float, float, float, float, float, float, %class.btVector3, %class.btVector3, float, float, float, float, float, float, float, float, i8, i8, i8, i8, float, float, %class.btVector3, i8, i8, %class.btQuaternion, float, %class.btVector3, i32, float, float, float }
%class.btTypedConstraint = type { ptr, %struct.btTypedObject, i32, %union.anon.0, float, i8, i8, i32, ptr, ptr, float, float, ptr }
%struct.btTypedObject = type { i32 }
%union.anon.0 = type { ptr }
%class.btJacobianEntry = type { %class.btVector3, %class.btVector3, %class.btVector3, %class.btVector3, %class.btVector3, float }
%class.btTransform = type { %class.btMatrix3x3, %class.btVector3 }
%class.btMatrix3x3 = type { [3 x %class.btVector3] }
%class.btQuaternion = type { %class.btQuadWord }
%class.btQuadWord = type { [4 x float] }

; Function Attrs: inlinehint mustprogress nounwind uwtable
define linkonce_odr dso_local noundef float @_ZNK9btVector33dotERKS_(ptr noundef nonnull align 4 dereferenceable(16) %0, ptr noundef nonnull align 4 dereferenceable(16) %1) #5 comdat align 2 {
  %3 = alloca ptr, align 8
  %4 = alloca ptr, align 8
  store ptr %0, ptr %3, align 8, !tbaa !36
  store ptr %1, ptr %4, align 8, !tbaa !36
  %5 = load ptr, ptr %3, align 8
  %6 = getelementptr inbounds nuw %class.btVector3, ptr %5, i32 0, i32 0
  %7 = getelementptr inbounds [4 x float], ptr %6, i64 0, i64 0
  %8 = load float, ptr %7, align 4, !tbaa !50
  %9 = load ptr, ptr %4, align 8, !tbaa !36
  %10 = getelementptr inbounds nuw %class.btVector3, ptr %9, i32 0, i32 0
  %11 = getelementptr inbounds [4 x float], ptr %10, i64 0, i64 0
  %12 = load float, ptr %11, align 4, !tbaa !50
  %13 = getelementptr inbounds nuw %class.btVector3, ptr %5, i32 0, i32 0
  %14 = getelementptr inbounds [4 x float], ptr %13, i64 0, i64 1
  %15 = load float, ptr %14, align 4, !tbaa !50
  %16 = load ptr, ptr %4, align 8, !tbaa !36
  %17 = getelementptr inbounds nuw %class.btVector3, ptr %16, i32 0, i32 0
  %18 = getelementptr inbounds [4 x float], ptr %17, i64 0, i64 1
  %19 = load float, ptr %18, align 4, !tbaa !50
  %20 = fmul float %15, %19
  %21 = call float @llvm.fmuladd.f32(float %8, float %12, float %20)
  %22 = getelementptr inbounds nuw %class.btVector3, ptr %5, i32 0, i32 0
  %23 = getelementptr inbounds [4 x float], ptr %22, i64 0, i64 2
  %24 = load float, ptr %23, align 4, !tbaa !50
  %25 = load ptr, ptr %4, align 8, !tbaa !36
  %26 = getelementptr inbounds nuw %class.btVector3, ptr %25, i32 0, i32 0
  %27 = getelementptr inbounds [4 x float], ptr %26, i64 0, i64 2
  %28 = load float, ptr %27, align 4, !tbaa !50
  %29 = call float @llvm.fmuladd.f32(float %24, float %28, float %21)
  ret float %29
}

; Function Attrs: inlinehint mustprogress nounwind uwtable
define linkonce_odr dso_local noundef nonnull align 4 dereferenceable(16) ptr @_ZN9btVector3mLERKf(ptr noundef nonnull align 4 dereferenceable(16) %0, ptr noundef nonnull align 4 dereferenceable(4) %1) #5 comdat align 2 {
  %3 = alloca ptr, align 8
  %4 = alloca ptr, align 8
  store ptr %0, ptr %3, align 8, !tbaa !36
  store ptr %1, ptr %4, align 8, !tbaa !51
  %5 = load ptr, ptr %3, align 8
  %6 = load ptr, ptr %4, align 8, !tbaa !51
  %7 = load float, ptr %6, align 4, !tbaa !50
  %8 = getelementptr inbounds nuw %class.btVector3, ptr %5, i32 0, i32 0
  %9 = getelementptr inbounds [4 x float], ptr %8, i64 0, i64 0
  %10 = load float, ptr %9, align 4, !tbaa !50
  %11 = fmul float %10, %7
  store float %11, ptr %9, align 4, !tbaa !50
  %12 = load ptr, ptr %4, align 8, !tbaa !51
  %13 = load float, ptr %12, align 4, !tbaa !50
  %14 = getelementptr inbounds nuw %class.btVector3, ptr %5, i32 0, i32 0
  %15 = getelementptr inbounds [4 x float], ptr %14, i64 0, i64 1
  %16 = load float, ptr %15, align 4, !tbaa !50
  %17 = fmul float %16, %13
  store float %17, ptr %15, align 4, !tbaa !50
  %18 = load ptr, ptr %4, align 8, !tbaa !51
  %19 = load float, ptr %18, align 4, !tbaa !50
  %20 = getelementptr inbounds nuw %class.btVector3, ptr %5, i32 0, i32 0
  %21 = getelementptr inbounds [4 x float], ptr %20, i64 0, i64 2
  %22 = load float, ptr %21, align 4, !tbaa !50
  %23 = fmul float %22, %19
  store float %23, ptr %21, align 4, !tbaa !50
  ret ptr %5
}

; Function Attrs: inlinehint mustprogress nounwind uwtable
define linkonce_odr dso_local noundef float @_Z6btSqrtf(float noundef %0) #5 comdat {
  %2 = alloca float, align 4
  store float %0, ptr %2, align 4, !tbaa !50
  %3 = load float, ptr %2, align 4, !tbaa !50
  %4 = call float @sqrtf(float noundef %3) #13, !tbaa !9
  ret float %4
}

; Function Attrs: inlinehint mustprogress nounwind uwtable
define linkonce_odr dso_local noundef float @_ZNK9btVector37length2Ev(ptr noundef nonnull align 4 dereferenceable(16) %0) #5 comdat align 2 {
  %2 = alloca ptr, align 8
  store ptr %0, ptr %2, align 8, !tbaa !36
  %3 = load ptr, ptr %2, align 8
  %4 = call noundef float @_ZNK9btVector33dotERKS_(ptr noundef nonnull align 4 dereferenceable(16) %3, ptr noundef nonnull align 4 dereferenceable(16) %3)
  ret float %4
}

; Function Attrs: inlinehint mustprogress uwtable
define linkonce_odr dso_local noundef nonnull align 4 dereferenceable(16) ptr @_ZN9btVector3dVERKf(ptr noundef nonnull align 4 dereferenceable(16) %0, ptr noundef nonnull align 4 dereferenceable(4) %1) #4 comdat align 2 {
  %3 = alloca ptr, align 8
  %4 = alloca ptr, align 8
  %5 = alloca float, align 4
  store ptr %0, ptr %3, align 8, !tbaa !36
  store ptr %1, ptr %4, align 8, !tbaa !51
  %6 = load ptr, ptr %3, align 8
  call void @llvm.lifetime.start.p0(i64 4, ptr %5) #13
  %7 = load ptr, ptr %4, align 8, !tbaa !51
  %8 = load float, ptr %7, align 4, !tbaa !50
  %9 = fdiv float 1.000000e+00, %8
  store float %9, ptr %5, align 4, !tbaa !50
  %10 = call noundef nonnull align 4 dereferenceable(16) ptr @_ZN9btVector3mLERKf(ptr noundef nonnull align 4 dereferenceable(16) %6, ptr noundef nonnull align 4 dereferenceable(4) %5)
  call void @llvm.lifetime.end.p0(i64 4, ptr %5) #13
  ret ptr %10
}

; Function Attrs: inlinehint mustprogress nounwind uwtable
define linkonce_odr dso_local noundef float @_ZNK9btVector36lengthEv(ptr noundef nonnull align 4 dereferenceable(16) %0) #5 comdat align 2 {
  %2 = alloca ptr, align 8
  store ptr %0, ptr %2, align 8, !tbaa !36
  %3 = load ptr, ptr %2, align 8
  %4 = call noundef float @_ZNK9btVector37length2Ev(ptr noundef nonnull align 4 dereferenceable(16) %3)
  %5 = call noundef float @_Z6btSqrtf(float noundef %4)
  ret float %5
}

; Function Attrs: inlinehint mustprogress nounwind uwtable
define linkonce_odr dso_local noundef float @_Z6btAcosf(float noundef %0) #5 comdat {
  %2 = alloca float, align 4
  store float %0, ptr %2, align 4, !tbaa !50
  %3 = load float, ptr %2, align 4, !tbaa !50
  %4 = fcmp olt float %3, -1.000000e+00
  br i1 %4, label %5, label %6

5:                                                ; preds = %1
  store float -1.000000e+00, ptr %2, align 4, !tbaa !50
  br label %6

6:                                                ; preds = %5, %1
  %7 = load float, ptr %2, align 4, !tbaa !50
  %8 = fcmp ogt float %7, 1.000000e+00
  br i1 %8, label %9, label %10

9:                                                ; preds = %6
  store float 1.000000e+00, ptr %2, align 4, !tbaa !50
  br label %10

10:                                               ; preds = %9, %6
  %11 = load float, ptr %2, align 4, !tbaa !50
  %12 = call float @acosf(float noundef %11) #13, !tbaa !9
  ret float %12
}

; Function Attrs: inlinehint mustprogress nounwind uwtable
define linkonce_odr dso_local noundef float @_ZSt4sqrtf(float noundef %0) #5 comdat {
  %2 = alloca float, align 4
  store float %0, ptr %2, align 4, !tbaa !50
  %3 = load float, ptr %2, align 4, !tbaa !50
  %4 = call float @sqrtf(float noundef %3) #13, !tbaa !9
  ret float %4
}

; Function Attrs: inlinehint mustprogress nounwind uwtable
define linkonce_odr dso_local noundef float @_ZSt4fabsf(float noundef %0) #5 comdat {
  %2 = alloca float, align 4
  store float %0, ptr %2, align 4, !tbaa !50
  %3 = load float, ptr %2, align 4, !tbaa !50
  %4 = call float @llvm.fabs.f32(float %3)
  ret float %4
}

; Function Attrs: inlinehint mustprogress nounwind uwtable
define linkonce_odr dso_local noundef nonnull align 4 dereferenceable(4) ptr @_ZNK9btVector31zEv(ptr noundef nonnull align 4 dereferenceable(16) %0) #5 comdat align 2 {
  %2 = alloca ptr, align 8
  store ptr %0, ptr %2, align 8, !tbaa !36
  %3 = load ptr, ptr %2, align 8
  %4 = getelementptr inbounds nuw %class.btVector3, ptr %3, i32 0, i32 0
  %5 = getelementptr inbounds [4 x float], ptr %4, i64 0, i64 2
  ret ptr %5
}

; Function Attrs: inlinehint mustprogress nounwind uwtable
define linkonce_odr dso_local noundef nonnull align 4 dereferenceable(4) ptr @_ZNK9btVector31yEv(ptr noundef nonnull align 4 dereferenceable(16) %0) #5 comdat align 2 {
  %2 = alloca ptr, align 8
  store ptr %0, ptr %2, align 8, !tbaa !36
  %3 = load ptr, ptr %2, align 8
  %4 = getelementptr inbounds nuw %class.btVector3, ptr %3, i32 0, i32 0
  %5 = getelementptr inbounds [4 x float], ptr %4, i64 0, i64 1
  ret ptr %5
}

; Function Attrs: inlinehint mustprogress uwtable
define linkonce_odr dso_local noundef nonnull align 4 dereferenceable(16) ptr @_ZN9btVector39normalizeEv(ptr noundef nonnull align 4 dereferenceable(16) %0) #4 comdat align 2 {
  %2 = alloca ptr, align 8
  %3 = alloca float, align 4
  store ptr %0, ptr %2, align 8, !tbaa !36
  %4 = load ptr, ptr %2, align 8
  call void @llvm.lifetime.start.p0(i64 4, ptr %3) #13
  %5 = call noundef float @_ZNK9btVector36lengthEv(ptr noundef nonnull align 4 dereferenceable(16) %4)
  store float %5, ptr %3, align 4, !tbaa !50
  %6 = call noundef nonnull align 4 dereferenceable(16) ptr @_ZN9btVector3dVERKf(ptr noundef nonnull align 4 dereferenceable(16) %4, ptr noundef nonnull align 4 dereferenceable(4) %3)
  call void @llvm.lifetime.end.p0(i64 4, ptr %3) #13
  ret ptr %6
}

; Function Attrs: inlinehint mustprogress nounwind uwtable
define linkonce_odr dso_local void @_ZN9btVector3C2ERKfS1_S1_(ptr noundef nonnull align 4 dereferenceable(16) %0, ptr noundef nonnull align 4 dereferenceable(4) %1, ptr noundef nonnull align 4 dereferenceable(4) %2, ptr noundef nonnull align 4 dereferenceable(4) %3) unnamed_addr #5 comdat align 2 {
  %5 = alloca ptr, align 8
  %6 = alloca ptr, align 8
  %7 = alloca ptr, align 8
  %8 = alloca ptr, align 8
  store ptr %0, ptr %5, align 8, !tbaa !36
  store ptr %1, ptr %6, align 8, !tbaa !51
  store ptr %2, ptr %7, align 8, !tbaa !51
  store ptr %3, ptr %8, align 8, !tbaa !51
  %9 = load ptr, ptr %5, align 8
  %10 = load ptr, ptr %6, align 8, !tbaa !51
  %11 = load float, ptr %10, align 4, !tbaa !50
  %12 = getelementptr inbounds nuw %class.btVector3, ptr %9, i32 0, i32 0
  %13 = getelementptr inbounds [4 x float], ptr %12, i64 0, i64 0
  store float %11, ptr %13, align 4, !tbaa !50
  %14 = load ptr, ptr %7, align 8, !tbaa !51
  %15 = load float, ptr %14, align 4, !tbaa !50
  %16 = getelementptr inbounds nuw %class.btVector3, ptr %9, i32 0, i32 0
  %17 = getelementptr inbounds [4 x float], ptr %16, i64 0, i64 1
  store float %15, ptr %17, align 4, !tbaa !50
  %18 = load ptr, ptr %8, align 8, !tbaa !51
  %19 = load float, ptr %18, align 4, !tbaa !50
  %20 = getelementptr inbounds nuw %class.btVector3, ptr %9, i32 0, i32 0
  %21 = getelementptr inbounds [4 x float], ptr %20, i64 0, i64 2
  store float %19, ptr %21, align 4, !tbaa !50
  %22 = getelementptr inbounds nuw %class.btVector3, ptr %9, i32 0, i32 0
  %23 = getelementptr inbounds [4 x float], ptr %22, i64 0, i64 3
  store float 0.000000e+00, ptr %23, align 4, !tbaa !50
  ret void
}

; Function Attrs: inlinehint mustprogress nounwind uwtable
define linkonce_odr dso_local noundef nonnull align 4 dereferenceable(4) ptr @_ZNK10btQuadWord1zEv(ptr noundef nonnull align 4 dereferenceable(16) %0) #5 comdat align 2 {
  %2 = alloca ptr, align 8
  store ptr %0, ptr %2, align 8, !tbaa !119
  %3 = load ptr, ptr %2, align 8
  %4 = getelementptr inbounds nuw %class.btQuadWord, ptr %3, i32 0, i32 0
  %5 = getelementptr inbounds [4 x float], ptr %4, i64 0, i64 2
  ret ptr %5
}

; Function Attrs: inlinehint mustprogress nounwind uwtable
define linkonce_odr dso_local noundef nonnull align 4 dereferenceable(4) ptr @_ZNK10btQuadWord1yEv(ptr noundef nonnull align 4 dereferenceable(16) %0) #5 comdat align 2 {
  %2 = alloca ptr, align 8
  store ptr %0, ptr %2, align 8, !tbaa !119
  %3 = load ptr, ptr %2, align 8
  %4 = getelementptr inbounds nuw %class.btQuadWord, ptr %3, i32 0, i32 0
  %5 = getelementptr inbounds [4 x float], ptr %4, i64 0, i64 1
  ret ptr %5
}

; Function Attrs: inlinehint mustprogress nounwind uwtable
define linkonce_odr dso_local noundef nonnull align 4 dereferenceable(4) ptr @_ZNK10btQuadWord1xEv(ptr noundef nonnull align 4 dereferenceable(16) %0) #5 comdat align 2 {
  %2 = alloca ptr, align 8
  store ptr %0, ptr %2, align 8, !tbaa !119
  %3 = load ptr, ptr %2, align 8
  %4 = getelementptr inbounds nuw %class.btQuadWord, ptr %3, i32 0, i32 0
  %5 = getelementptr inbounds [4 x float], ptr %4, i64 0, i64 0
  ret ptr %5
}

; Function Attrs: mustprogress uwtable
define linkonce_odr dso_local noundef float @_ZNK12btQuaternion8getAngleEv(ptr noundef nonnull align 4 dereferenceable(16) %0) #2 comdat align 2 {
  %2 = alloca ptr, align 8
  %3 = alloca float, align 4
  store ptr %0, ptr %2, align 8, !tbaa !38
  %4 = load ptr, ptr %2, align 8
  call void @llvm.lifetime.start.p0(i64 4, ptr %3) #13
  %5 = getelementptr inbounds nuw %class.btQuadWord, ptr %4, i32 0, i32 0
  %6 = getelementptr inbounds [4 x float], ptr %5, i64 0, i64 3
  %7 = load float, ptr %6, align 4, !tbaa !50
  %8 = call noundef float @_Z6btAcosf(float noundef %7)
  %9 = fmul float 2.000000e+00, %8
  store float %9, ptr %3, align 4, !tbaa !50
  %10 = load float, ptr %3, align 4, !tbaa !50
  call void @llvm.lifetime.end.p0(i64 4, ptr %3) #13
  ret float %10
}

; Function Attrs: mustprogress uwtable
define dso_local void @_ZN21btConeTwistConstraint20computeConeLimitInfoERK12btQuaternionRfR9btVector3S3_(ptr noundef nonnull align 8 dereferenceable(632) %0, ptr noundef nonnull align 4 dereferenceable(16) %1, ptr noundef nonnull align 4 dereferenceable(4) %2, ptr noundef nonnull align 4 dereferenceable(16) %3, ptr noundef nonnull align 4 dereferenceable(4) %4) #2 align 2 {
  %6 = alloca ptr, align 8
  %7 = alloca ptr, align 8
  %8 = alloca ptr, align 8
  %9 = alloca ptr, align 8
  %10 = alloca ptr, align 8
  %11 = alloca %class.btVector3, align 4
  %12 = alloca float, align 4
  %13 = alloca float, align 4
  %14 = alloca float, align 4
  %15 = alloca float, align 4
  %16 = alloca float, align 4
  store ptr %0, ptr %6, align 8, !tbaa !12
  store ptr %1, ptr %7, align 8, !tbaa !38
  store ptr %2, ptr %8, align 8, !tbaa !51
  store ptr %3, ptr %9, align 8, !tbaa !36
  store ptr %4, ptr %10, align 8, !tbaa !51
  %17 = load ptr, ptr %6, align 8
  %18 = load ptr, ptr %7, align 8, !tbaa !38
  %19 = call noundef float @_ZNK12btQuaternion8getAngleEv(ptr noundef nonnull align 4 dereferenceable(16) %18)
  %20 = load ptr, ptr %8, align 8, !tbaa !51
  store float %19, ptr %20, align 4, !tbaa !50
  %21 = load ptr, ptr %8, align 8, !tbaa !51
  %22 = load float, ptr %21, align 4, !tbaa !50
  %23 = fcmp ogt float %22, 0x3E80000000000000
  br i1 %23, label %24, label %78

24:                                               ; preds = %5
  call void @llvm.lifetime.start.p0(i64 16, ptr %11) #13
  %25 = load ptr, ptr %7, align 8, !tbaa !38
  %26 = call noundef nonnull align 4 dereferenceable(4) ptr @_ZNK10btQuadWord1xEv(ptr noundef nonnull align 4 dereferenceable(16) %25)
  %27 = load ptr, ptr %7, align 8, !tbaa !38
  %28 = call noundef nonnull align 4 dereferenceable(4) ptr @_ZNK10btQuadWord1yEv(ptr noundef nonnull align 4 dereferenceable(16) %27)
  %29 = load ptr, ptr %7, align 8, !tbaa !38
  %30 = call noundef nonnull align 4 dereferenceable(4) ptr @_ZNK10btQuadWord1zEv(ptr noundef nonnull align 4 dereferenceable(16) %29)
  call void @_ZN9btVector3C2ERKfS1_S1_(ptr noundef nonnull align 4 dereferenceable(16) %11, ptr noundef nonnull align 4 dereferenceable(4) %26, ptr noundef nonnull align 4 dereferenceable(4) %28, ptr noundef nonnull align 4 dereferenceable(4) %30)
  %31 = load ptr, ptr %9, align 8, !tbaa !36
  call void @llvm.memcpy.p0.p0.i64(ptr align 4 %31, ptr align 4 %11, i64 16, i1 false), !tbaa.struct !35
  call void @llvm.lifetime.end.p0(i64 16, ptr %11) #13
  %32 = load ptr, ptr %9, align 8, !tbaa !36
  %33 = call noundef nonnull align 4 dereferenceable(16) ptr @_ZN9btVector39normalizeEv(ptr noundef nonnull align 4 dereferenceable(16) %32)
  call void @llvm.lifetime.start.p0(i64 4, ptr %12) #13
  %34 = load ptr, ptr %9, align 8, !tbaa !36
  %35 = call noundef nonnull align 4 dereferenceable(4) ptr @_ZNK9btVector31yEv(ptr noundef nonnull align 4 dereferenceable(16) %34)
  %36 = load float, ptr %35, align 4, !tbaa !50
  store float %36, ptr %12, align 4, !tbaa !50
  call void @llvm.lifetime.start.p0(i64 4, ptr %13) #13
  %37 = load ptr, ptr %9, align 8, !tbaa !36
  %38 = call noundef nonnull align 4 dereferenceable(4) ptr @_ZNK9btVector31zEv(ptr noundef nonnull align 4 dereferenceable(16) %37)
  %39 = load float, ptr %38, align 4, !tbaa !50
  %40 = fneg float %39
  store float %40, ptr %13, align 4, !tbaa !50
  %41 = getelementptr inbounds nuw %class.btConeTwistConstraint, ptr %17, i32 0, i32 8
  %42 = load float, ptr %41, align 4, !tbaa !53
  %43 = load ptr, ptr %10, align 8, !tbaa !51
  store float %42, ptr %43, align 4, !tbaa !50
  %44 = load float, ptr %12, align 4, !tbaa !50
  %45 = call noundef float @_ZSt4fabsf(float noundef %44)
  %46 = fcmp ogt float %45, 0x3E80000000000000
  br i1 %46, label %47, label %77

47:                                               ; preds = %24
  call void @llvm.lifetime.start.p0(i64 4, ptr %14) #13
  %48 = load float, ptr %13, align 4, !tbaa !50
  %49 = load float, ptr %13, align 4, !tbaa !50
  %50 = fmul float %48, %49
  %51 = load float, ptr %12, align 4, !tbaa !50
  %52 = load float, ptr %12, align 4, !tbaa !50
  %53 = fmul float %51, %52
  %54 = fdiv float %50, %53
  store float %54, ptr %14, align 4, !tbaa !50
  call void @llvm.lifetime.start.p0(i64 4, ptr %15) #13
  %55 = getelementptr inbounds nuw %class.btConeTwistConstraint, ptr %17, i32 0, i32 9
  %56 = load float, ptr %55, align 8, !tbaa !54
  %57 = getelementptr inbounds nuw %class.btConeTwistConstraint, ptr %17, i32 0, i32 9
  %58 = load float, ptr %57, align 8, !tbaa !54
  %59 = fmul float %56, %58
  %60 = fdiv float 1.000000e+00, %59
  store float %60, ptr %15, align 4, !tbaa !50
  %61 = load float, ptr %14, align 4, !tbaa !50
  %62 = getelementptr inbounds nuw %class.btConeTwistConstraint, ptr %17, i32 0, i32 8
  %63 = load float, ptr %62, align 4, !tbaa !53
  %64 = getelementptr inbounds nuw %class.btConeTwistConstraint, ptr %17, i32 0, i32 8
  %65 = load float, ptr %64, align 4, !tbaa !53
  %66 = fmul float %63, %65
  %67 = fdiv float %61, %66
  %68 = load float, ptr %15, align 4, !tbaa !50
  %69 = fadd float %68, %67
  store float %69, ptr %15, align 4, !tbaa !50
  call void @llvm.lifetime.start.p0(i64 4, ptr %16) #13
  %70 = load float, ptr %14, align 4, !tbaa !50
  %71 = fadd float 1.000000e+00, %70
  %72 = load float, ptr %15, align 4, !tbaa !50
  %73 = fdiv float %71, %72
  store float %73, ptr %16, align 4, !tbaa !50
  %74 = load float, ptr %16, align 4, !tbaa !50
  %75 = call noundef float @_ZSt4sqrtf(float noundef %74)
  %76 = load ptr, ptr %10, align 8, !tbaa !51
  store float %75, ptr %76, align 4, !tbaa !50
  call void @llvm.lifetime.end.p0(i64 4, ptr %16) #13
  call void @llvm.lifetime.end.p0(i64 4, ptr %15) #13
  call void @llvm.lifetime.end.p0(i64 4, ptr %14) #13
  br label %77

77:                                               ; preds = %47, %24
  call void @llvm.lifetime.end.p0(i64 4, ptr %13) #13
  call void @llvm.lifetime.end.p0(i64 4, ptr %12) #13
  br label %84

78:                                               ; preds = %5
  %79 = load ptr, ptr %8, align 8, !tbaa !51
  %80 = load float, ptr %79, align 4, !tbaa !50
  %81 = fcmp olt float %80, 0.000000e+00
  br i1 %81, label %82, label %83

82:                                               ; preds = %78
  br label %83

83:                                               ; preds = %82, %78
  br label %84

84:                                               ; preds = %83, %77
  ret void
}