; Function Attrs: mustprogress nofree nounwind willreturn memory(write, argmem: readwrite) uwtable
define dso_local void @_ZN21btConeTwistConstraint20computeConeLimitInfoERK12btQuaternionRfR9btVector3S3_(ptr noundef nonnull readonly align 8 captures(none) dereferenceable(632) %0, ptr noundef nonnull readonly align 4 captures(none) dereferenceable(16) %1, ptr noundef nonnull writeonly align 4 captures(none) dereferenceable(4) initializes((0, 4)) %2, ptr noundef nonnull writeonly align 4 captures(none) dereferenceable(16) %3, ptr noundef nonnull writeonly align 4 captures(none) dereferenceable(4) %4) local_unnamed_addr #9 align 2 {
  %6 = getelementptr inbounds nuw i8, ptr %1, i64 12
  %7 = load float, ptr %6, align 4, !tbaa !51
  %8 = fcmp olt float %7, -1.000000e+00
  %.0.i.i = select i1 %8, float -1.000000e+00, float %7
  %9 = fcmp ogt float %.0.i.i, 1.000000e+00
  %.1.i.i = select i1 %9, float 1.000000e+00, float %.0.i.i
  %10 = tail call noundef float @acosf(float noundef %.1.i.i) #22, !tbaa !67
  %11 = fmul float %10, 2.000000e+00
  store float %11, ptr %2, align 4, !tbaa !51
  %12 = fcmp ogt float %11, 0x3E80000000000000
  br i1 %12, label %13, label %43

13:                                               ; preds = %5
  %14 = getelementptr inbounds nuw i8, ptr %1, i64 4
  %15 = getelementptr inbounds nuw i8, ptr %1, i64 8
  %16 = load float, ptr %1, align 4, !tbaa !51
  %17 = load float, ptr %14, align 4, !tbaa !51
  %18 = load float, ptr %15, align 4, !tbaa !51
  %.sroa.4.0..sroa_idx = getelementptr inbounds nuw i8, ptr %3, i64 4
  %.sroa.5.0..sroa_idx = getelementptr inbounds nuw i8, ptr %3, i64 8
  %.sroa.6.0..sroa_idx = getelementptr inbounds nuw i8, ptr %3, i64 12
  store float 0.000000e+00, ptr %.sroa.6.0..sroa_idx, align 4, !tbaa !8
  %19 = fmul float %17, %17
  %20 = tail call float @llvm.fmuladd.f32(float %16, float %16, float %19)
  %21 = tail call noundef float @llvm.fmuladd.f32(float %18, float %18, float %20)
  %sqrt.i.i = tail call noundef float @llvm.sqrt.f32(float %21)
  %22 = fdiv float 1.000000e+00, %sqrt.i.i
  %23 = fmul float %16, %22
  store float %23, ptr %3, align 4, !tbaa !51
  %24 = fmul float %17, %22
  store float %24, ptr %.sroa.4.0..sroa_idx, align 4, !tbaa !51
  %25 = fmul float %18, %22
  store float %25, ptr %.sroa.5.0..sroa_idx, align 4, !tbaa !51
  %26 = getelementptr inbounds nuw i8, ptr %0, i64 468
  %27 = load float, ptr %26, align 4, !tbaa !26
  store float %27, ptr %4, align 4, !tbaa !51
  %28 = tail call noundef float @llvm.fabs.f32(float %24)
  %29 = fcmp ogt float %28, 0x3E80000000000000
  br i1 %29, label %30, label %43

30:                                               ; preds = %13
  %31 = fmul float %25, %25
  %32 = fmul float %24, %24
  %33 = fdiv float %31, %32
  %34 = getelementptr inbounds nuw i8, ptr %0, i64 472
  %35 = load float, ptr %34, align 8, !tbaa !27
  %36 = fmul float %35, %35
  %37 = fdiv float 1.000000e+00, %36
  %38 = fmul float %27, %27
  %39 = fdiv float %33, %38
  %40 = fadd float %37, %39
  %41 = fadd float %33, 1.000000e+00
  %42 = fdiv float %41, %40
  %sqrt = tail call float @llvm.sqrt.f32(float %42)
  store float %sqrt, ptr %4, align 4, !tbaa !51
  br label %43

43:                                               ; preds = %5, %13, %30
  ret void
}